; Function Attrs: mustprogress uwtable
define void @_ZN2cv3dnn14dnn4_v2024052118readNetFromDarknetERKSt6vectorIhSaIhEES6_(ptr dead_on_unwind noalias writable sret(%"class.cv::dnn::dnn4_v20240521::Net") align 8 %0, ptr nocapture noundef nonnull readonly align 8 dereferenceable(24) %1, ptr nocapture noundef nonnull readonly align 8 dereferenceable(24) %2) local_unnamed_addr #3 {
  %4 = load ptr, ptr %1, align 8
  %5 = load ptr, ptr %2, align 8
  %6 = getelementptr inbounds i8, ptr %2, i64 8
  %7 = load ptr, ptr %6, align 8
  %8 = icmp eq ptr %5, %7
  %spec.select = select i1 %8, ptr null, ptr %5
  %9 = getelementptr inbounds i8, ptr %1, i64 8
  %10 = load ptr, ptr %9, align 8
  %11 = ptrtoint ptr %10 to i64
  %12 = ptrtoint ptr %4 to i64
  %13 = sub i64 %11, %12
  %14 = ptrtoint ptr %7 to i64
  %15 = ptrtoint ptr %5 to i64
  %16 = sub i64 %14, %15
  tail call void @_ZN2cv3dnn14dnn4_v2024052118readNetFromDarknetEPKcmS3_m(ptr dead_on_unwind writable sret(%"class.cv::dnn::dnn4_v20240521::Net") align 8 %0, ptr noundef nonnull %4, i64 noundef %13, ptr noundef %spec.select, i64 noundef %16)
  ret void
}